; Function Attrs: nounwind uwtable
define internal void @manifest_process_wal_range(ptr noundef readonly captures(none) %0, i32 noundef %1, i64 noundef %2, i64 noundef %3) #0 {
  %5 = load ptr, ptr %0, align 8
  %6 = tail call ptr @palloc(i64 noundef 24) #14
  store i32 %1, ptr %6, align 8
  %7 = getelementptr inbounds nuw i8, ptr %6, i64 8
  store i64 %2, ptr %7, align 8
  %8 = getelementptr inbounds nuw i8, ptr %6, i64 16
  store i64 %3, ptr %8, align 8
  %9 = getelementptr inbounds nuw i8, ptr %5, i64 32
  %10 = load ptr, ptr %9, align 8
  %11 = tail call ptr @lappend(ptr noundef %10, ptr noundef nonnull %6) #14
  store ptr %11, ptr %9, align 8
  ret void
}